(dp0
I8
F2468.0
sI2057
F5295.939596
sI4107
F3765.888899
sI12
F6185.99
sI16399
F4341.899192
sI18
F5965.9899
sI20
F6185.98
sI4123
F7180.899297
sI28
F6185.97
sI30
F7462.9799
sI42
F7462.9699
sI2091
F6664.879399
sI44
F6184.96
sI2093
F7404.919497
sI50
F5745.9798
sI4147
F7332.909496
sI52
F6181.95
sI18491
F3541.878796
sI2109
F6972.889299
sI22591
F6518.879093
sI66
F7461.9599
sI68
F6175.94
sI70
F7462.9698
sI34891
F6293.878892
sI76
F6165.93
sI78
F7462.9499
sI2139
F7146.899199
sI92
F6150.92
sI357
F7458.939699
sI2146
F6881.8891
sI99
F5964.959899
sI102
F7458.9399
sI24679
F6825.889092
sI105
F7462.969799
sI4205
F4205.909098
sI110
F7461.9598
sI8303
F4610.919293
sI114
F7444.9299
sI116
F6129.91
sI117
F5961.949899
sI124
F6101.9
sI125
F2335.979798
sI130
F7462.9498
sI8323
F6552.879097
sI10373
F6605.879196
sI2185
F7375.919298
sI138
F7410.9199
sI16523
F6459.878995
sI6851
F7191.899395
sI148
F6065.89
sI6293
F7089.899097
sI28823
F6314.878893
sI153
F5955.939899
sI154
F7460.9597
sI4255
F6937.889198
sI27
F2401.989899
sI164
F6020.88
sI165
F7461.959799
sI170
F7458.9398
sI171
F5945.929899
sI174
F7341.9099
sI175
F5745.969798
sI182
F7462.9497
sI2233
F7339.909597
sI186
F7216.8999
sI8381
F4809.909394
sI190
F7444.9298
sI715
F7461.949598
sI20677
F7034.899092
sI4301
F7391.919396
sI2255
F6678.879598
sI6355
F6469.878998
sI8405
F3545.878798
sI222
F7007.8899
sI3451
F7325.909397
sI10469
F4589.909293
sI230
F7410.9198
sI231
F7460.959699
sI238
F7458.9397
sI242
F5305.9596
sI27347
F6497.879092
sI245
F5525.969698
sI246
F6678.8799
sI2299
F5285.929596
sI255
F7458.939799
sI261
F5909.909899
sI385
F7459.959698
sI6409
F7316.909395
sI266
F7444.9297
sI45
F5965.979899
sI273
F7462.949699
sI275
F5744.959798
sI279
F5881.899899
sI285
F7444.929799
sI286
F7461.9496
sI2337
F6644.879299
sI290
F7341.9098
sI16687
F6345.878896
sI4403
F6991.889397
sI310
F7216.8998
sI322
F7410.9197
sI325
F5741.949798
sI12617
F6793.888996
sI2378
F6553.8791
sI10571
F3981.898996
sI333
F5845.889899
sI6479
F7177.899296
sI4433
F7207.899496
sI338
F5085.9495
sI2387
F7214.899597
sI343
F2269.969697
sI345
F7410.919799
sI399
F7444.929699
sI741
F7439.929499
sI2405
F7002.889498
sI5863
F6670.879496
sI369
F5800.879899
sI370
F7007.8898
sI374
F7457.9396
sI8569
F6640.879296
sI10619
F6348.878897
sI4477
F5185.889596
sI2431
F7449.939496
sI2945
F7181.899298
sI12673
F7236.909193
sI31117
F4085.889091
sI4495
F7090.899098
sI406
F7341.9097
sI410
F6678.8798
sI2465
F7326.909398
sI418
F7443.9296
sI26011
F3730.888893
sI425
F5735.939798
sI429
F7461.949599
sI434
F7216.8997
sI435
F7341.909799
sI442
F7453.9395
sI2197
F2137.949495
sI75
F5745.979799
sI10693
F4745.889394
sI4551
F6349.878899
sI6601
F6608.879197
sI14801
F4480.879293
sI561
F7457.939599
sI2523
F4205.909099
sI2527
F4644.929297
sI483
F7410.919699
sI39401
F3820.87899
sI2542
F6469.879
sI33263
F6713.888991
sI6647
F4830.919394
sI2553
F6937.889199
sI506
F7409.9196
sI8959
F4781.899394
sI518
F7007.8897
sI539
F5524.959697
sI555
F7007.889799
sI29233
F6413.878992
sI4669
F7270.909197
sI574
F6677.8797
sI14911
F6787.888995
sI578
F4865.9394
sI6727
F3984.898997
sI2635
F7201.899398
sI98
F5525.9697
sI2639
F7335.909497
sI595
F7458.939698
sI4693
F4635.929295
sI598
F7405.9195
sI605
F5305.959598
sI609
F7341.909699
sI615
F6678.879799
sI2665
F6674.879498
sI4715
F6609.879198
sI627
F7443.929599
sI637
F5521.949697
sI638
F7340.9096
sI3179
F4861.939396
sI646
F7429.9294
sI2697
F7090.899099
sI651
F7216.899699
sI6253
F4965.889495
sI663
F7453.939499
sI665
F7444.929698
sI363
F5305.959599
sI2717
F7435.929496
sI682
F7215.8996
sI1479
F7326.909399
sI2737
F7394.919397
sI2738
F3765.8889
sI10933
F4195.909095
sI17081
F7055.899093
sI6845
F3765.888898
sI8897
F6468.878997
sI2755
F7306.909298
sI4805
F3985.898998
sI4807
F7371.919296
sI6859
F2005.929293
sI722
F4645.9293
sI15059
F3761.888896
sI725
F5689.909798
sI6877
F4415.919195
sI2783
F5270.919596
sI35557
F3865.88899
sI465
F7216.899799
sI23273
F3745.888894
sI754
F7336.9095
sI62197
F3380.878789
sI759
F7409.919599
sI31487
F3709.888892
sI2821
F7210.899497
sI775
F5661.899798
sI777
F7007.889699
sI26071
F4121.899091
sI2829
F6609.879199
sI782
F7395.9194
sI4879
F6663.879397
sI6929
F4920.879495
sI14467
F6917.889194
sI39701
F3681.888891
sI13079
F6549.879096
sI8993
F4405.919194
sI475
F5725.929798
sI4901
F5029.909495
sI806
F7211.8995
sI814
F7006.8896
sI4913
F2071.939394
sI11063
F6927.889195
sI4921
F6971.889297
sI8671
F7261.909195
sI56129
F3600.878889
sI2883
F3985.898999
sI845
F5085.949498
sI847
F5304.959597
sI2873
F5075.939495
sI861
F6677.879699
sI4961
F5140.879596
sI867
F4865.939399
sI9061
F6654.879395
sI874
F7375.9193
sI147
F5525.969699
sI4991
F7145.899197
sI897
F7405.919499
sI902
F6678.8796
sI833
F5515.939697
sI19343
F4149.909092
sI1859
F5081.949496
sI494
F7439.9295
sI3567
F6553.879099
sI925
F5625.889798
sI24389
F1873.909091
sI931
F5505.929697
sI935
F7457.939598
sI6919
F6988.889396
sI9139
F6962.889295
sI11191
F4561.899293
sI13243
F6624.879294
sI957
F7340.909599
sI962
F7002.8895
sI1805
F4645.929298
sI969
F7429.929399
sI43993
F6265.878891
sI986
F7326.9094
sI5083
F7385.919395
sI507
F5085.949499
sI1001
F7460.949597
sI15341
F4369.909192
sI3034
F6349.8789
sI3059
F7374.919297
sI1015
F7341.909698
sI7163
F7296.909295
sI1023
F7215.899599
sI1025
F5580.879798
sI1045
F7443.929598
sI1054
F7201.8994
sI1058
F4425.9192
sI9251
F4201.909096
sI1066
F6674.8795
sI19499
F6777.888994
sI13357
F4525.889293
sI8029
F6796.888997
sI9269
F7136.899195
sI1083
F4645.929299
sI1085
F7216.899698
sI3145
F6992.889398
sI11339
F7251.909194
sI1102
F7306.9093
sI1105
F7453.939498
sI3157
F6677.879597
sI21689
F4260.879192
sI29791
F1807.89899
sI15457
F6543.879095
sI21607
F6449.878994
sI1131
F7336.909499
sI19573
F4305.889192
sI5239
F5001.899495
sI3211
F5065.929495
sI9361
F6933.889196
sI3219
F6881.889099
sI1173
F7395.919399
sI9367
F7286.909294
sI1178
F7181.8993
sI4199
F7419.929395
sI1183
F5084.949497
sI7337
F7267.909196
sI5291
F6998.889496
sI1209
F7211.899499
sI25789
F6329.878894
sI31939
F3510.878793
sI1221
F7006.889599
sI12493
F3975.898995
sI1235
F7439.929498
sI3289
F7401.919496
sI207
F5930.919899
sI27869
F3901.898991
sI1258
F6992.8894
sI13547
F7111.899193
sI1265
F7409.919598
sI5365
F6881.889098
sI2261
F7428.929397
sI7429
F7355.919294
sI3335
F7271.909198
sI19721
F6339.878895
sI1295
F7007.889698
sI1309
F7456.939597
sI1311
F7375.919299
sI21793
F6762.888993
sI3362
F3545.8788
sI3367
F7001.889497
sI1127
F5490.919697
sI5423
F7322.909396
sI1587
F4425.919199
sI1334
F7271.9092
sI68921
F1675.878788
sI1353
F6678.879599
sI5453
F6643.879297
sI7511
F6880.889097
sI52111
F3425.87879
sI21853
F3535.878795
sI455
F7462.949698
sI9583
F3764.888897
sI3441
F6797.888999
sI1394
F6664.8794
sI5491
F4845.929394
sI575
F5710.919798
sI1406
F6972.8893
sI17797
F3755.888895
sI1421
F5469.909697
sI1426
F7146.8992
sI1435
F6676.879698
sI3485
F6664.879398
sI7585
F6349.878898
sI1443
F7002.889499
sI1445
F4865.939398
sI11687
F7080.899095
sI3509
F5249.909596
sI1463
F7442.929597
sI3515
F6972.889298
sI2294
F6797.889
sI42439
F3645.88889
sI20387
F6846.889093
sI1495
F7405.919498
sI50653
F1741.888889
sI3553
F7425.929396
sI7657
F7171.899295
sI3565
F7146.899198
sI1519
F5441.899697
sI7667
F6660.879396
sI11767
F3544.878797
sI17917
F6574.879193
sI2645
F4425.919198
sI1547
F7452.939497
sI1558
F6644.8793
sI11803
F6877.889096
sI1573
F5301.949596
sI1581
F7201.899399
sI5681
F7365.919295
sI15283
F7070.899094
sI7733
F6968.889296
sI1595
F7340.909598
sI2849
F7005.889597
sI1599
F6674.879499
sI11849
F4700.879394
sI1615
F7429.929398
sI24149
F6434.878993
sI22103
F3929.898992
sI5735
F6797.888998
sI3689
F7200.899397
sI15979
F4170.909093
sI48749
F3461.878791
sI805
F7410.919698
sI3703
F4424.919197
sI13949
F6871.889095
sI1682
F4205.9091
sI3731
F6673.879497
sI13981
F6465.878996
sI16031
F6589.879194
sI9889
F7086.899096
sI7843
F7142.899196
sI5797
F7197.899396
sI1702
F6937.8892
sI3751
F5221.899596
sI1705
F7215.899598
sI3757
F4855.939395
sI11951
F6952.889294
sI34481
F4040.879091
sI5819
F4421.919196
sI1653
F7306.909299
sI1729
F7438.929497
sI3813
F6469.878999
sI195
F7462.949799
sI2001
F7271.909199
sI1771
F7408.919597
sI20213
F6533.879094
sI5887
F4204.909097
sI1798
F7090.8991
sI38663
F3489.878792
sI26381
F6741.888992
sI3857
F7305.909297
sI1813
F5405.889697
sI2009
F5360.879697
sI10013
F7161.899294
sI16169
F6902.889193
sI3887
F5050.919495
sI1331
F2203.959596
sI3895
F6644.879298
sI5945
F6553.879098
sI18241
F6861.889094
sI10051
F4390.919193
sI5957
F6936.889197
sI1767
F7181.899299
sI18259
F3950.898993
sI12121
F7126.899194
sI1885
F7336.909498
sI1886
F6609.8792
sI1887
F6992.889399
sI63
F5965.969899
sI1922
F3985.899
sI3971
F4641.929296
sI12167
F1939.919192
sI10127
F6634.879295
sI5043
F3545.878799
sI28577
F3525.878794
sI1955
F7395.919398
sI6061
F7302.909296
sI47027
F6229.87889
sI16337
F3965.898994
sI14297
F4185.909094
sI2015
F7211.899498
sI12259
F6599.879195
sI2023
F4864.939397
sI8177
F6982.889395
sI2035
F7006.889598
sI6137
F4625.929294
sI36859
F6385.878991
s.